target datalayout = "e-m:e-p270:32:32-p271:32:32-p272:64:64-i64:64-i128:128-f80:128-n8:16:32:64-S128"
target triple = "x86_64-pc-linux-gnu"

%"struct.std::_Rb_tree_key_compare" = type { %"struct.std::less" }
%"struct.std::less" = type { i8 }
%"struct.std::_Rb_tree_header" = type { %"struct.std::_Rb_tree_node_base", i64 }
%"struct.std::_Rb_tree_node_base" = type { i32, ptr, ptr, ptr }
%"struct.casadi::SundialsMemory" = type <{ %"struct.casadi::IntegratorMemory", ptr, ptr, ptr, ptr, ptr, ptr, i8, [7 x i8], ptr, ptr, ptr, ptr, ptr, ptr, ptr, ptr, i64, i64, i64, i64, i32, i32, double, double, double, double, i64, i64, i64, i64, i64, i64, i32, i32, double, double, double, double, i64, i64, i64, i64, i64, i64, i64, i64, ptr, ptr, i32, [4 x i8], ptr, i32, [4 x i8] }>
%"struct.casadi::IntegratorMemory" = type { %"struct.casadi::OracleMemory", i64, double, double, double }
%"struct.casadi::OracleMemory" = type { %"struct.casadi::FunctionMemory", ptr, ptr, ptr, ptr, %"class.std::vector.69" }
%"struct.casadi::FunctionMemory" = type { %"struct.casadi::ProtoFunctionMemory" }
%"struct.casadi::ProtoFunctionMemory" = type { %"class.std::map.64", ptr }
%"class.std::map.64" = type { %"class.std::_Rb_tree.65" }
%"class.std::_Rb_tree.65" = type { %"struct.std::_Rb_tree<std::__cxx11::basic_string<char>, std::pair<const std::__cxx11::basic_string<char>, casadi::FStats>, std::_Select1st<std::pair<const std::__cxx11::basic_string<char>, casadi::FStats>>, std::less<std::__cxx11::basic_string<char>>>::_Rb_tree_impl" }
%"struct.std::_Rb_tree<std::__cxx11::basic_string<char>, std::pair<const std::__cxx11::basic_string<char>, casadi::FStats>, std::_Select1st<std::pair<const std::__cxx11::basic_string<char>, casadi::FStats>>, std::less<std::__cxx11::basic_string<char>>>::_Rb_tree_impl" = type { %"struct.std::_Rb_tree_key_compare", %"struct.std::_Rb_tree_header" }
%"class.std::vector.69" = type { %"struct.std::_Vector_base.70" }
%"struct.std::_Vector_base.70" = type { %"struct.std::_Vector_base<casadi::LocalOracleMemory *, std::allocator<casadi::LocalOracleMemory *>>::_Vector_impl" }
%"struct.std::_Vector_base<casadi::LocalOracleMemory *, std::allocator<casadi::LocalOracleMemory *>>::_Vector_impl" = type { %"struct.std::_Vector_base<casadi::LocalOracleMemory *, std::allocator<casadi::LocalOracleMemory *>>::_Vector_impl_data" }
%"struct.std::_Vector_base<casadi::LocalOracleMemory *, std::allocator<casadi::LocalOracleMemory *>>::_Vector_impl_data" = type { ptr, ptr, ptr }

; Function Attrs: mustprogress nounwind uwtable
define void @_ZNK6casadi17SundialsInterface11add_offsetsEPNS_14SundialsMemoryE(ptr noundef nonnull align 8 dereferenceable(2120) %0, ptr noundef %1) #5 align 2 {
  %3 = alloca ptr, align 8
  %4 = alloca ptr, align 8
  store ptr %0, ptr %3, align 8
  store ptr %1, ptr %4, align 8
  %5 = load ptr, ptr %4, align 8
  %6 = getelementptr inbounds %"struct.casadi::SundialsMemory", ptr %5, i32 0, i32 41
  %7 = load i64, ptr %6, align 8
  %8 = load ptr, ptr %4, align 8
  %9 = getelementptr inbounds %"struct.casadi::SundialsMemory", ptr %8, i32 0, i32 29
  %10 = load i64, ptr %9, align 8
  %11 = add nsw i64 %10, %7
  store i64 %11, ptr %9, align 8
  %12 = load ptr, ptr %4, align 8
  %13 = getelementptr inbounds %"struct.casadi::SundialsMemory", ptr %12, i32 0, i32 42
  %14 = load i64, ptr %13, align 8
  %15 = load ptr, ptr %4, align 8
  %16 = getelementptr inbounds %"struct.casadi::SundialsMemory", ptr %15, i32 0, i32 30
  %17 = load i64, ptr %16, align 8
  %18 = add nsw i64 %17, %14
  store i64 %18, ptr %16, align 8
  %19 = load ptr, ptr %4, align 8
  %20 = getelementptr inbounds %"struct.casadi::SundialsMemory", ptr %19, i32 0, i32 43
  %21 = load i64, ptr %20, align 8
  %22 = load ptr, ptr %4, align 8
  %23 = getelementptr inbounds %"struct.casadi::SundialsMemory", ptr %22, i32 0, i32 31
  %24 = load i64, ptr %23, align 8
  %25 = add nsw i64 %24, %21
  store i64 %25, ptr %23, align 8
  %26 = load ptr, ptr %4, align 8
  %27 = getelementptr inbounds %"struct.casadi::SundialsMemory", ptr %26, i32 0, i32 44
  %28 = load i64, ptr %27, align 8
  %29 = load ptr, ptr %4, align 8
  %30 = getelementptr inbounds %"struct.casadi::SundialsMemory", ptr %29, i32 0, i32 32
  %31 = load i64, ptr %30, align 8
  %32 = add nsw i64 %31, %28
  store i64 %32, ptr %30, align 8
  %33 = load ptr, ptr %4, align 8
  %34 = getelementptr inbounds %"struct.casadi::SundialsMemory", ptr %33, i32 0, i32 45
  %35 = load i64, ptr %34, align 8
  %36 = load ptr, ptr %4, align 8
  %37 = getelementptr inbounds %"struct.casadi::SundialsMemory", ptr %36, i32 0, i32 39
  %38 = load i64, ptr %37, align 8
  %39 = add nsw i64 %38, %35
  store i64 %39, ptr %37, align 8
  %40 = load ptr, ptr %4, align 8
  %41 = getelementptr inbounds %"struct.casadi::SundialsMemory", ptr %40, i32 0, i32 46
  %42 = load i64, ptr %41, align 8
  %43 = load ptr, ptr %4, align 8
  %44 = getelementptr inbounds %"struct.casadi::SundialsMemory", ptr %43, i32 0, i32 40
  %45 = load i64, ptr %44, align 8
  %46 = add nsw i64 %45, %42
  store i64 %46, ptr %44, align 8
  ret void
}