; Function Attrs: mustprogress nofree norecurse nosync nounwind willreturn memory(argmem: readwrite) uwtable
define void @_ZNK6casadi17SundialsInterface11add_offsetsEPNS_14SundialsMemoryE(ptr nocapture noundef nonnull readnone align 8 dereferenceable(2120) %0, ptr nocapture noundef %1) local_unnamed_addr #10 align 2 {
  %3 = getelementptr inbounds i8, ptr %1, i64 440
  %4 = getelementptr inbounds i8, ptr %1, i64 352
  %5 = load <2 x i64>, ptr %3, align 8
  %6 = load <2 x i64>, ptr %4, align 8
  %7 = add nsw <2 x i64> %6, %5
  store <2 x i64> %7, ptr %4, align 8
  %8 = getelementptr inbounds i8, ptr %1, i64 456
  %9 = getelementptr inbounds i8, ptr %1, i64 368
  %10 = load <2 x i64>, ptr %8, align 8
  %11 = load <2 x i64>, ptr %9, align 8
  %12 = add nsw <2 x i64> %11, %10
  store <2 x i64> %12, ptr %9, align 8
  %13 = getelementptr inbounds i8, ptr %1, i64 472
  %14 = getelementptr inbounds i8, ptr %1, i64 424
  %15 = load <2 x i64>, ptr %13, align 8
  %16 = load <2 x i64>, ptr %14, align 8
  %17 = add nsw <2 x i64> %16, %15
  store <2 x i64> %17, ptr %14, align 8
  ret void
}